---
triple:          'arm64-apple-darwin'
binary-path:     '/Users/lilongfei/CLionProjects/OS/lab04/main'
relocations:
  - { offsetInCU: 0x3589, offset: 0x3589, size: 0x8, addend: 0x0, symName: __ZNSt3__124__put_character_sequenceB7v160006IcNS_11char_traitsIcEEEERNS_13basic_ostreamIT_T0_EES7_PKS4_m, symObjAddr: 0x28D8, symBinAddr: 0x100002E2C, symSize: 0x1EC }
  - { offsetInCU: 0x4E36, offset: 0x4E36, size: 0x8, addend: 0x0, symName: __ZNSt3__1lsB7v160006INS_11char_traitsIcEEEERNS_13basic_ostreamIcT_EES6_PKc, symObjAddr: 0xAC, symBinAddr: 0x100000600, symSize: 0x48 }
  - { offsetInCU: 0x4E7C, offset: 0x4E7C, size: 0x8, addend: 0x0, symName: __ZNSt3__14endlB7v160006IcNS_11char_traitsIcEEEERNS_13basic_ostreamIT_T0_EES7_, symObjAddr: 0x120, symBinAddr: 0x100000674, symSize: 0x58 }
  - { offsetInCU: 0x4EBC, offset: 0x4EBC, size: 0x8, addend: 0x0, symName: __ZNSt3__119__debug_db_insert_cB7v160006INS_12basic_stringIcNS_11char_traitsIcEENS_9allocatorIcEEEEEEvPT_, symObjAddr: 0x6E8, symBinAddr: 0x100000C3C, symSize: 0x10 }
  - { offsetInCU: 0x4EED, offset: 0x4EED, size: 0x8, addend: 0x0, symName: __ZNSt3__17getlineB7v160006IcNS_11char_traitsIcEENS_9allocatorIcEEEERNS_13basic_istreamIT_T0_EES9_RNS_12basic_stringIS6_S7_T1_EE, symObjAddr: 0x82C, symBinAddr: 0x100000D80, symSize: 0x5C }
  - { offsetInCU: 0x58CA, offset: 0x58CA, size: 0x8, addend: 0x0, symName: __ZNSt3__1rsB7v160006IcNS_11char_traitsIcEENS_9allocatorIcEEEERNS_13basic_istreamIT_T0_EES9_RNS_12basic_stringIS6_S7_T1_EE, symObjAddr: 0x998, symBinAddr: 0x100000EEC, symSize: 0x318 }
  - { offsetInCU: 0x5999, offset: 0x5999, size: 0x8, addend: 0x0, symName: __ZNSt3__1eqB7v160006IcNS_11char_traitsIcEENS_9allocatorIcEEEEbRKNS_12basic_stringIT_T0_T1_EEPKS6_, symObjAddr: 0xCB0, symBinAddr: 0x100001204, symSize: 0xAC }
  - { offsetInCU: 0x5A00, offset: 0x5A00, size: 0x8, addend: 0x0, symName: __ZNSt3__1rsB7v160006IcNS_11char_traitsIcEEEERNS_13basic_istreamIT_T0_EES7_RS4_, symObjAddr: 0xD5C, symBinAddr: 0x1000012B0, symSize: 0x18C }
  - { offsetInCU: 0x5A8D, offset: 0x5A8D, size: 0x8, addend: 0x0, symName: __ZNSt3__17getlineB7v160006IcNS_11char_traitsIcEENS_9allocatorIcEEEERNS_13basic_istreamIT_T0_EES9_RNS_12basic_stringIS6_S7_T1_EES6_, symObjAddr: 0x1890, symBinAddr: 0x100001DE4, symSize: 0x238 }
  - { offsetInCU: 0x5B4B, offset: 0x5B4B, size: 0x8, addend: 0x0, symName: __ZNSt3__125__debug_db_invalidate_allB7v160006INS_12basic_stringIcNS_11char_traitsIcEENS_9allocatorIcEEEEEEvPT_, symObjAddr: 0x1EB0, symBinAddr: 0x100002404, symSize: 0x10 }
  - { offsetInCU: 0x5DB1, offset: 0x5DB1, size: 0x8, addend: 0x0, symName: __ZNSt3__19use_facetB7v160006INS_5ctypeIcEEEERKT_RKNS_6localeE, symObjAddr: 0x21EC, symBinAddr: 0x100002740, symSize: 0x2C }
  - { offsetInCU: 0x6392, offset: 0x6392, size: 0x8, addend: 0x0, symName: __ZNSt3__118__constexpr_strlenB7v160006EPKc, symObjAddr: 0x2810, symBinAddr: 0x100002D64, symSize: 0x24 }
  - { offsetInCU: 0x63BE, offset: 0x63BE, size: 0x8, addend: 0x0, symName: __ZNSt3__1lsB7v160006IcNS_11char_traitsIcEENS_9allocatorIcEEEERNS_13basic_ostreamIT_T0_EES9_RKNS_12basic_stringIS6_S7_T1_EE, symObjAddr: 0x2860, symBinAddr: 0x100002DB4, symSize: 0x4C }
  - { offsetInCU: 0x6416, offset: 0x6416, size: 0x8, addend: 0x0, symName: __ZNSt3__116__pad_and_outputB7v160006IcNS_11char_traitsIcEEEENS_19ostreambuf_iteratorIT_T0_EES6_PKS4_S8_S8_RNS_8ios_baseES4_, symObjAddr: 0x2B08, symBinAddr: 0x10000305C, symSize: 0x240 }
  - { offsetInCU: 0x64E5, offset: 0x64E5, size: 0x8, addend: 0x0, symName: __ZNSt3__112__to_addressB7v160006IKcEEPT_S3_, symObjAddr: 0x2F3C, symBinAddr: 0x100003490, symSize: 0x14 }
  - { offsetInCU: 0x654D, offset: 0x654D, size: 0x8, addend: 0x0, symName: __ZNSt3__1eqB7v160006INS_9allocatorIcEEEEbRKNS_12basic_stringIcNS_11char_traitsIcEET_EES9_, symObjAddr: 0x3008, symBinAddr: 0x10000355C, symSize: 0x148 }
  - { offsetInCU: 0x65C0, offset: 0x65C0, size: 0x8, addend: 0x0, symName: __ZNSt3__118__constexpr_memcmpB7v160006IcEEiPKT_S3_m, symObjAddr: 0x31BC, symBinAddr: 0x100003710, symSize: 0x34 }
  - { offsetInCU: 0x8B32, offset: 0x8B32, size: 0x8, addend: 0x0, symName: _main, symObjAddr: 0x0, symBinAddr: 0x100000554, symSize: 0xAC }
  - { offsetInCU: 0x8B7A, offset: 0x8B7A, size: 0x8, addend: 0x0, symName: __ZNSt3__113basic_ostreamIcNS_11char_traitsIcEEElsB7v160006EPFRS3_S4_E, symObjAddr: 0xF4, symBinAddr: 0x100000648, symSize: 0x2C }
  - { offsetInCU: 0x8CAA, offset: 0x8CAA, size: 0x8, addend: 0x0, symName: __ZN15MemoryAllocatorC1Ei, symObjAddr: 0x178, symBinAddr: 0x1000006CC, symSize: 0x34 }
  - { offsetInCU: 0x8CDF, offset: 0x8CDF, size: 0x8, addend: 0x0, symName: __ZN15MemoryAllocator5startEv, symObjAddr: 0x1AC, symBinAddr: 0x100000700, symSize: 0x360 }
  - { offsetInCU: 0x8D87, offset: 0x8D87, size: 0x8, addend: 0x0, symName: __ZN15MemoryAllocatorC2Ei, symObjAddr: 0x50C, symBinAddr: 0x100000A60, symSize: 0x90 }
  - { offsetInCU: 0x8DC2, offset: 0x8DC2, size: 0x8, addend: 0x0, symName: __ZN15MemoryAllocator11MemoryBlockC1Ev, symObjAddr: 0x59C, symBinAddr: 0x100000AF0, symSize: 0x2C }
  - { offsetInCU: 0x8DEC, offset: 0x8DEC, size: 0x8, addend: 0x0, symName: __ZNSt3__112basic_stringIcNS_11char_traitsIcEENS_9allocatorIcEEEaSB7v160006EPKc, symObjAddr: 0x5C8, symBinAddr: 0x100000B1C, symSize: 0x2C }
  - { offsetInCU: 0x8E20, offset: 0x8E20, size: 0x8, addend: 0x0, symName: __ZN15MemoryAllocator11MemoryBlockC2Ev, symObjAddr: 0x5F4, symBinAddr: 0x100000B48, symSize: 0x2C }
  - { offsetInCU: 0x8E4B, offset: 0x8E4B, size: 0x8, addend: 0x0, symName: __ZNSt3__112basic_stringIcNS_11char_traitsIcEENS_9allocatorIcEEEC1B7v160006Ev, symObjAddr: 0x620, symBinAddr: 0x100000B74, symSize: 0x2C }
  - { offsetInCU: 0x8E73, offset: 0x8E73, size: 0x8, addend: 0x0, symName: __ZNSt3__112basic_stringIcNS_11char_traitsIcEENS_9allocatorIcEEEC2B7v160006Ev, symObjAddr: 0x64C, symBinAddr: 0x100000BA0, symSize: 0x54 }
  - { offsetInCU: 0x8EA0, offset: 0x8EA0, size: 0x8, addend: 0x0, symName: __ZNSt3__117__compressed_pairINS_12basic_stringIcNS_11char_traitsIcEENS_9allocatorIcEEE5__repES5_EC1B7v160006INS_18__default_init_tagESA_EEOT_OT0_, symObjAddr: 0x6A0, symBinAddr: 0x100000BF4, symSize: 0x3C }
  - { offsetInCU: 0x8EF5, offset: 0x8EF5, size: 0x8, addend: 0x0, symName: __ZNSt3__112basic_stringIcNS_11char_traitsIcEENS_9allocatorIcEEE14__default_initB7v160006Ev, symObjAddr: 0x6F8, symBinAddr: 0x100000C4C, symSize: 0x40 }
  - { offsetInCU: 0x8F1A, offset: 0x8F1A, size: 0x8, addend: 0x0, symName: __ZNSt3__117__compressed_pairINS_12basic_stringIcNS_11char_traitsIcEENS_9allocatorIcEEE5__repES5_EC2B7v160006INS_18__default_init_tagESA_EEOT_OT0_, symObjAddr: 0x738, symBinAddr: 0x100000C8C, symSize: 0x3C }
  - { offsetInCU: 0x8F70, offset: 0x8F70, size: 0x8, addend: 0x0, symName: __ZNSt3__122__compressed_pair_elemINS_12basic_stringIcNS_11char_traitsIcEENS_9allocatorIcEEE5__repELi0ELb0EEC2B7v160006ENS_18__default_init_tagE, symObjAddr: 0x774, symBinAddr: 0x100000CC8, symSize: 0x14 }
  - { offsetInCU: 0x8FA4, offset: 0x8FA4, size: 0x8, addend: 0x0, symName: __ZNSt3__122__compressed_pair_elemINS_9allocatorIcEELi1ELb1EEC2B7v160006ENS_18__default_init_tagE, symObjAddr: 0x788, symBinAddr: 0x100000CDC, symSize: 0x2C }
  - { offsetInCU: 0x8FD7, offset: 0x8FD7, size: 0x8, addend: 0x0, symName: __ZNSt3__19allocatorIcEC2B7v160006Ev, symObjAddr: 0x7B4, symBinAddr: 0x100000D08, symSize: 0x2C }
  - { offsetInCU: 0x8FFF, offset: 0x8FFF, size: 0x8, addend: 0x0, symName: __ZNSt3__116__non_trivial_ifILb1ENS_9allocatorIcEEEC2B7v160006Ev, symObjAddr: 0x7E0, symBinAddr: 0x100000D34, symSize: 0x14 }
  - { offsetInCU: 0x9027, offset: 0x9027, size: 0x8, addend: 0x0, symName: __ZNSt3__117__compressed_pairINS_12basic_stringIcNS_11char_traitsIcEENS_9allocatorIcEEE5__repES5_E5firstB7v160006Ev, symObjAddr: 0x7F4, symBinAddr: 0x100000D48, symSize: 0x24 }
  - { offsetInCU: 0x904C, offset: 0x904C, size: 0x8, addend: 0x0, symName: __ZNSt3__122__compressed_pair_elemINS_12basic_stringIcNS_11char_traitsIcEENS_9allocatorIcEEE5__repELi0ELb0EE5__getB7v160006Ev, symObjAddr: 0x818, symBinAddr: 0x100000D6C, symSize: 0x14 }
  - { offsetInCU: 0x9159, offset: 0x9159, size: 0x8, addend: 0x0, symName: __ZNSt3__118basic_stringstreamIcNS_11char_traitsIcEENS_9allocatorIcEEEC1B7v160006ERKNS_12basic_stringIcS2_S4_EEj, symObjAddr: 0x888, symBinAddr: 0x100000DDC, symSize: 0x110 }
  - { offsetInCU: 0x919E, offset: 0x919E, size: 0x8, addend: 0x0, symName: __ZN15MemoryAllocator14allocateMemoryENSt3__112basic_stringIcNS0_11char_traitsIcEENS0_9allocatorIcEEEEic, symObjAddr: 0xEE8, symBinAddr: 0x10000143C, symSize: 0x67C }
  - { offsetInCU: 0x929C, offset: 0x929C, size: 0x8, addend: 0x0, symName: __ZN15MemoryAllocator13releaseMemoryENSt3__112basic_stringIcNS0_11char_traitsIcEENS0_9allocatorIcEEEE, symObjAddr: 0x1564, symBinAddr: 0x100001AB8, symSize: 0x8C }
  - { offsetInCU: 0x92EB, offset: 0x92EB, size: 0x8, addend: 0x0, symName: __ZN15MemoryAllocator13compactMemoryEv, symObjAddr: 0x15F0, symBinAddr: 0x100001B44, symSize: 0x14C }
  - { offsetInCU: 0x9357, offset: 0x9357, size: 0x8, addend: 0x0, symName: __ZN15MemoryAllocator12reportStatusEv, symObjAddr: 0x173C, symBinAddr: 0x100001C90, symSize: 0x114 }
  - { offsetInCU: 0x93AC, offset: 0x93AC, size: 0x8, addend: 0x0, symName: __ZNSt3__118basic_stringstreamIcNS_11char_traitsIcEENS_9allocatorIcEEED1Ev, symObjAddr: 0x1850, symBinAddr: 0x100001DA4, symSize: 0x40 }
  - { offsetInCU: 0x93D8, offset: 0x93D8, size: 0x8, addend: 0x0, symName: __ZNKSt3__19basic_iosIcNS_11char_traitsIcEEE5widenB7v160006Ec, symObjAddr: 0x1AC8, symBinAddr: 0x10000201C, symSize: 0x84 }
  - { offsetInCU: 0x942C, offset: 0x942C, size: 0x8, addend: 0x0, symName: __ZNKSt3__113basic_istreamIcNS_11char_traitsIcEEE6sentrycvbB7v160006Ev, symObjAddr: 0x1B4C, symBinAddr: 0x1000020A0, symSize: 0x1C }
  - { offsetInCU: 0x9451, offset: 0x9451, size: 0x8, addend: 0x0, symName: __ZNSt3__112basic_stringIcNS_11char_traitsIcEENS_9allocatorIcEEE5clearB7v160006Ev, symObjAddr: 0x1B68, symBinAddr: 0x1000020BC, symSize: 0x88 }
  - { offsetInCU: 0x9478, offset: 0x9478, size: 0x8, addend: 0x0, symName: __ZNKSt3__19basic_iosIcNS_11char_traitsIcEEE5rdbufB7v160006Ev, symObjAddr: 0x1BF0, symBinAddr: 0x100002144, symSize: 0x24 }
  - { offsetInCU: 0x949E, offset: 0x949E, size: 0x8, addend: 0x0, symName: __ZNSt3__115basic_streambufIcNS_11char_traitsIcEEE6sbumpcB7v160006Ev, symObjAddr: 0x1C14, symBinAddr: 0x100002168, symSize: 0x78 }
  - { offsetInCU: 0x94C3, offset: 0x94C3, size: 0x8, addend: 0x0, symName: __ZNSt3__111char_traitsIcE11eq_int_typeEii, symObjAddr: 0x1C8C, symBinAddr: 0x1000021E0, symSize: 0x28 }
  - { offsetInCU: 0x94F4, offset: 0x94F4, size: 0x8, addend: 0x0, symName: __ZNSt3__111char_traitsIcE3eofEv, symObjAddr: 0x1CB4, symBinAddr: 0x100002208, symSize: 0x8 }
  - { offsetInCU: 0x9508, offset: 0x9508, size: 0x8, addend: 0x0, symName: __ZNSt3__111char_traitsIcE12to_char_typeEi, symObjAddr: 0x1CBC, symBinAddr: 0x100002210, symSize: 0x18 }
  - { offsetInCU: 0x952B, offset: 0x952B, size: 0x8, addend: 0x0, symName: __ZNSt3__111char_traitsIcE2eqEcc, symObjAddr: 0x1CD4, symBinAddr: 0x100002228, symSize: 0x28 }
  - { offsetInCU: 0x955B, offset: 0x955B, size: 0x8, addend: 0x0, symName: __ZNKSt3__112basic_stringIcNS_11char_traitsIcEENS_9allocatorIcEEE4sizeB7v160006Ev, symObjAddr: 0x1CFC, symBinAddr: 0x100002250, symSize: 0x54 }
  - { offsetInCU: 0x957F, offset: 0x957F, size: 0x8, addend: 0x0, symName: __ZNKSt3__112basic_stringIcNS_11char_traitsIcEENS_9allocatorIcEEE8max_sizeB7v160006Ev, symObjAddr: 0x1D50, symBinAddr: 0x1000022A4, symSize: 0xAC }
  - { offsetInCU: 0x95D1, offset: 0x95D1, size: 0x8, addend: 0x0, symName: __ZNSt3__18ios_base18__setstate_nothrowB7v160006Ej, symObjAddr: 0x1DFC, symBinAddr: 0x100002350, symSize: 0x64 }
  - { offsetInCU: 0x9604, offset: 0x9604, size: 0x8, addend: 0x0, symName: __ZNKSt3__19basic_iosIcNS_11char_traitsIcEEE10exceptionsB7v160006Ev, symObjAddr: 0x1E60, symBinAddr: 0x1000023B4, symSize: 0x24 }
  - { offsetInCU: 0x9628, offset: 0x9628, size: 0x8, addend: 0x0, symName: __ZNSt3__19basic_iosIcNS_11char_traitsIcEEE8setstateB7v160006Ej, symObjAddr: 0x1E84, symBinAddr: 0x1000023D8, symSize: 0x2C }
  - { offsetInCU: 0x965B, offset: 0x965B, size: 0x8, addend: 0x0, symName: __ZNKSt3__112basic_stringIcNS_11char_traitsIcEENS_9allocatorIcEEE9__is_longB7v160006Ev, symObjAddr: 0x1EC0, symBinAddr: 0x100002414, symSize: 0x38 }
  - { offsetInCU: 0x9680, offset: 0x9680, size: 0x8, addend: 0x0, symName: __ZNSt3__111char_traitsIcE6assignERcRKc, symObjAddr: 0x1EF8, symBinAddr: 0x10000244C, symSize: 0x24 }
  - { offsetInCU: 0x96B0, offset: 0x96B0, size: 0x8, addend: 0x0, symName: __ZNSt3__112basic_stringIcNS_11char_traitsIcEENS_9allocatorIcEEE18__get_long_pointerB7v160006Ev, symObjAddr: 0x1F1C, symBinAddr: 0x100002470, symSize: 0x28 }
  - { offsetInCU: 0x96D4, offset: 0x96D4, size: 0x8, addend: 0x0, symName: __ZNSt3__112basic_stringIcNS_11char_traitsIcEENS_9allocatorIcEEE15__set_long_sizeB7v160006Em, symObjAddr: 0x1F44, symBinAddr: 0x100002498, symSize: 0x38 }
  - { offsetInCU: 0x9707, offset: 0x9707, size: 0x8, addend: 0x0, symName: __ZNSt3__112basic_stringIcNS_11char_traitsIcEENS_9allocatorIcEEE19__get_short_pointerB7v160006Ev, symObjAddr: 0x1F7C, symBinAddr: 0x1000024D0, symSize: 0x28 }
  - { offsetInCU: 0x972B, offset: 0x972B, size: 0x8, addend: 0x0, symName: __ZNSt3__112basic_stringIcNS_11char_traitsIcEENS_9allocatorIcEEE16__set_short_sizeB7v160006Em, symObjAddr: 0x1FA4, symBinAddr: 0x1000024F8, symSize: 0x78 }
  - { offsetInCU: 0x975E, offset: 0x975E, size: 0x8, addend: 0x0, symName: __ZNKSt3__117__compressed_pairINS_12basic_stringIcNS_11char_traitsIcEENS_9allocatorIcEEE5__repES5_E5firstB7v160006Ev, symObjAddr: 0x201C, symBinAddr: 0x100002570, symSize: 0x24 }
  - { offsetInCU: 0x9783, offset: 0x9783, size: 0x8, addend: 0x0, symName: __ZNKSt3__122__compressed_pair_elemINS_12basic_stringIcNS_11char_traitsIcEENS_9allocatorIcEEE5__repELi0ELb0EE5__getB7v160006Ev, symObjAddr: 0x2040, symBinAddr: 0x100002594, symSize: 0x14 }
  - { offsetInCU: 0x97A8, offset: 0x97A8, size: 0x8, addend: 0x0, symName: __ZNSt3__114pointer_traitsIPcE10pointer_toB7v160006ERc, symObjAddr: 0x2054, symBinAddr: 0x1000025A8, symSize: 0x14 }
  - { offsetInCU: 0x97CB, offset: 0x97CB, size: 0x8, addend: 0x0, symName: __ZNKSt3__18ios_base5rdbufB7v160006Ev, symObjAddr: 0x2068, symBinAddr: 0x1000025BC, symSize: 0x18 }
  - { offsetInCU: 0x97F0, offset: 0x97F0, size: 0x8, addend: 0x0, symName: __ZNSt3__111char_traitsIcE11to_int_typeEc, symObjAddr: 0x2080, symBinAddr: 0x1000025D4, symSize: 0x14 }
  - { offsetInCU: 0x9812, offset: 0x9812, size: 0x8, addend: 0x0, symName: __ZNKSt3__112basic_stringIcNS_11char_traitsIcEENS_9allocatorIcEEE15__get_long_sizeB7v160006Ev, symObjAddr: 0x2094, symBinAddr: 0x1000025E8, symSize: 0x28 }
  - { offsetInCU: 0x9836, offset: 0x9836, size: 0x8, addend: 0x0, symName: __ZNKSt3__112basic_stringIcNS_11char_traitsIcEENS_9allocatorIcEEE16__get_short_sizeB7v160006Ev, symObjAddr: 0x20BC, symBinAddr: 0x100002610, symSize: 0x34 }
  - { offsetInCU: 0x9865, offset: 0x9865, size: 0x8, addend: 0x0, symName: __ZNSt3__116allocator_traitsINS_9allocatorIcEEE8max_sizeB7v160006IS2_vEEmRKS2_, symObjAddr: 0x20F0, symBinAddr: 0x100002644, symSize: 0x24 }
  - { offsetInCU: 0x9892, offset: 0x9892, size: 0x8, addend: 0x0, symName: __ZNKSt3__112basic_stringIcNS_11char_traitsIcEENS_9allocatorIcEEE7__allocB7v160006Ev, symObjAddr: 0x2114, symBinAddr: 0x100002668, symSize: 0x24 }
  - { offsetInCU: 0x98B7, offset: 0x98B7, size: 0x8, addend: 0x0, symName: __ZNSt3__114numeric_limitsImE3maxB7v160006Ev, symObjAddr: 0x2138, symBinAddr: 0x10000268C, symSize: 0x14 }
  - { offsetInCU: 0x98CB, offset: 0x98CB, size: 0x8, addend: 0x0, symName: __ZNKSt3__19allocatorIcE8max_sizeB7v160006Ev, symObjAddr: 0x214C, symBinAddr: 0x1000026A0, symSize: 0x14 }
  - { offsetInCU: 0x98EF, offset: 0x98EF, size: 0x8, addend: 0x0, symName: __ZNKSt3__117__compressed_pairINS_12basic_stringIcNS_11char_traitsIcEENS_9allocatorIcEEE5__repES5_E6secondB7v160006Ev, symObjAddr: 0x2160, symBinAddr: 0x1000026B4, symSize: 0x24 }
  - { offsetInCU: 0x9914, offset: 0x9914, size: 0x8, addend: 0x0, symName: __ZNKSt3__122__compressed_pair_elemINS_9allocatorIcEELi1ELb1EE5__getB7v160006Ev, symObjAddr: 0x2184, symBinAddr: 0x1000026D8, symSize: 0x14 }
  - { offsetInCU: 0x9939, offset: 0x9939, size: 0x8, addend: 0x0, symName: __ZNSt3__123__libcpp_numeric_limitsImLb1EE3maxB7v160006Ev, symObjAddr: 0x2198, symBinAddr: 0x1000026EC, symSize: 0x8 }
  - { offsetInCU: 0x994D, offset: 0x994D, size: 0x8, addend: 0x0, symName: __ZNKSt3__18ios_base10exceptionsB7v160006Ev, symObjAddr: 0x21A0, symBinAddr: 0x1000026F4, symSize: 0x18 }
  - { offsetInCU: 0x9974, offset: 0x9974, size: 0x8, addend: 0x0, symName: __ZNSt3__18ios_base8setstateB7v160006Ej, symObjAddr: 0x21B8, symBinAddr: 0x10000270C, symSize: 0x34 }
  - { offsetInCU: 0x99D6, offset: 0x99D6, size: 0x8, addend: 0x0, symName: __ZNKSt3__15ctypeIcE5widenB7v160006Ec, symObjAddr: 0x2218, symBinAddr: 0x10000276C, symSize: 0x38 }
  - { offsetInCU: 0x9A0A, offset: 0x9A0A, size: 0x8, addend: 0x0, symName: __ZNSt3__19basic_iosIcNS_11char_traitsIcEEEC2B7v160006Ev, symObjAddr: 0x2250, symBinAddr: 0x1000027A4, symSize: 0x44 }
  - { offsetInCU: 0x9A32, offset: 0x9A32, size: 0x8, addend: 0x0, symName: __ZNSt3__114basic_iostreamIcNS_11char_traitsIcEEEC2B7v160006EPNS_15basic_streambufIcS2_EE, symObjAddr: 0x2294, symBinAddr: 0x1000027E8, symSize: 0xAC }
  - { offsetInCU: 0x9A75, offset: 0x9A75, size: 0x8, addend: 0x0, symName: __ZNSt3__115basic_stringbufIcNS_11char_traitsIcEENS_9allocatorIcEEEC1B7v160006ERKNS_12basic_stringIcS2_S4_EEj, symObjAddr: 0x2340, symBinAddr: 0x100002894, symSize: 0x3C }
  - { offsetInCU: 0x9AB9, offset: 0x9AB9, size: 0x8, addend: 0x0, symName: __ZNSt3__18ios_baseC2B7v160006Ev, symObjAddr: 0x237C, symBinAddr: 0x1000028D0, symSize: 0x24 }
  - { offsetInCU: 0x9AE2, offset: 0x9AE2, size: 0x8, addend: 0x0, symName: __ZNSt3__113basic_istreamIcNS_11char_traitsIcEEEC2B7v160006EPNS_15basic_streambufIcS2_EE, symObjAddr: 0x23A0, symBinAddr: 0x1000028F4, symSize: 0x64 }
  - { offsetInCU: 0x9B24, offset: 0x9B24, size: 0x8, addend: 0x0, symName: __ZNSt3__113basic_ostreamIcNS_11char_traitsIcEEEC2B7v160006Ev, symObjAddr: 0x2404, symBinAddr: 0x100002958, symSize: 0x34 }
  - { offsetInCU: 0x9B59, offset: 0x9B59, size: 0x8, addend: 0x0, symName: __ZNSt3__19basic_iosIcNS_11char_traitsIcEEE4initB7v160006EPNS_15basic_streambufIcS2_EE, symObjAddr: 0x2438, symBinAddr: 0x10000298C, symSize: 0x44 }
  - { offsetInCU: 0x9B8F, offset: 0x9B8F, size: 0x8, addend: 0x0, symName: __ZNSt3__115basic_stringbufIcNS_11char_traitsIcEENS_9allocatorIcEEEC2B7v160006ERKNS_12basic_stringIcS2_S4_EEj, symObjAddr: 0x247C, symBinAddr: 0x1000029D0, symSize: 0xB4 }
  - { offsetInCU: 0x9BD2, offset: 0x9BD2, size: 0x8, addend: 0x0, symName: __ZNKSt3__112basic_stringIcNS_11char_traitsIcEENS_9allocatorIcEEE13get_allocatorB7v160006Ev, symObjAddr: 0x2530, symBinAddr: 0x100002A84, symSize: 0x24 }
  - { offsetInCU: 0x9BF7, offset: 0x9BF7, size: 0x8, addend: 0x0, symName: __ZNSt3__112basic_stringIcNS_11char_traitsIcEENS_9allocatorIcEEEC1B7v160006ERKS4_, symObjAddr: 0x2554, symBinAddr: 0x100002AA8, symSize: 0x34 }
  - { offsetInCU: 0x9C2E, offset: 0x9C2E, size: 0x8, addend: 0x0, symName: __ZNSt3__112basic_stringIcNS_11char_traitsIcEENS_9allocatorIcEEEC2B7v160006ERKS4_, symObjAddr: 0x2588, symBinAddr: 0x100002ADC, symSize: 0x50 }
  - { offsetInCU: 0x9C65, offset: 0x9C65, size: 0x8, addend: 0x0, symName: __ZNSt3__117__compressed_pairINS_12basic_stringIcNS_11char_traitsIcEENS_9allocatorIcEEE5__repES5_EC1B7v160006INS_18__default_init_tagERKS5_EEOT_OT0_, symObjAddr: 0x25D8, symBinAddr: 0x100002B2C, symSize: 0x3C }
  - { offsetInCU: 0x9CBB, offset: 0x9CBB, size: 0x8, addend: 0x0, symName: __ZNSt3__117__compressed_pairINS_12basic_stringIcNS_11char_traitsIcEENS_9allocatorIcEEE5__repES5_EC2B7v160006INS_18__default_init_tagERKS5_EEOT_OT0_, symObjAddr: 0x2614, symBinAddr: 0x100002B68, symSize: 0x40 }
  - { offsetInCU: 0x9D11, offset: 0x9D11, size: 0x8, addend: 0x0, symName: __ZNSt3__122__compressed_pair_elemINS_9allocatorIcEELi1ELb1EEC2B7v160006IRKS2_vEEOT_, symObjAddr: 0x2654, symBinAddr: 0x100002BA8, symSize: 0x18 }
  - { offsetInCU: 0x9D52, offset: 0x9D52, size: 0x8, addend: 0x0, symName: __ZNKSt3__18ios_base5widthB7v160006Ev, symObjAddr: 0x266C, symBinAddr: 0x100002BC0, symSize: 0x18 }
  - { offsetInCU: 0x9D79, offset: 0x9D79, size: 0x8, addend: 0x0, symName: __ZNSt3__114numeric_limitsIlE3maxB7v160006Ev, symObjAddr: 0x2684, symBinAddr: 0x100002BD8, symSize: 0x14 }
  - { offsetInCU: 0x9D8C, offset: 0x9D8C, size: 0x8, addend: 0x0, symName: __ZNSt3__115basic_streambufIcNS_11char_traitsIcEEE5sgetcB7v160006Ev, symObjAddr: 0x2698, symBinAddr: 0x100002BEC, symSize: 0x70 }
  - { offsetInCU: 0x9DB0, offset: 0x9DB0, size: 0x8, addend: 0x0, symName: __ZNKSt3__15ctypeIcE2isB7v160006Ejc, symObjAddr: 0x2708, symBinAddr: 0x100002C5C, symSize: 0x7C }
  - { offsetInCU: 0x9DF3, offset: 0x9DF3, size: 0x8, addend: 0x0, symName: __ZNSt3__18ios_base5widthB7v160006El, symObjAddr: 0x2784, symBinAddr: 0x100002CD8, symSize: 0x2C }
  - { offsetInCU: 0x9E38, offset: 0x9E38, size: 0x8, addend: 0x0, symName: __ZNSt3__123__libcpp_numeric_limitsIlLb1EE3maxB7v160006Ev, symObjAddr: 0x27B0, symBinAddr: 0x100002D04, symSize: 0x8 }
  - { offsetInCU: 0x9E4B, offset: 0x9E4B, size: 0x8, addend: 0x0, symName: __Z7isasciii, symObjAddr: 0x27B8, symBinAddr: 0x100002D0C, symSize: 0x24 }
  - { offsetInCU: 0x9E78, offset: 0x9E78, size: 0x8, addend: 0x0, symName: __ZNSt3__111char_traitsIcE6lengthEPKc, symObjAddr: 0x27DC, symBinAddr: 0x100002D30, symSize: 0x34 }
  - { offsetInCU: 0x9E9B, offset: 0x9E9B, size: 0x8, addend: 0x0, symName: __ZN15MemoryAllocator11MemoryBlockD1Ev, symObjAddr: 0x2834, symBinAddr: 0x100002D88, symSize: 0x2C }
  - { offsetInCU: 0x9EC6, offset: 0x9EC6, size: 0x8, addend: 0x0, symName: __ZN15MemoryAllocator11MemoryBlockD2Ev, symObjAddr: 0x28AC, symBinAddr: 0x100002E00, symSize: 0x2C }
  - { offsetInCU: 0x9EF0, offset: 0x9EF0, size: 0x8, addend: 0x0, symName: __ZNKSt3__112basic_stringIcNS_11char_traitsIcEENS_9allocatorIcEEE4dataB7v160006Ev, symObjAddr: 0x2AC4, symBinAddr: 0x100003018, symSize: 0x28 }
  - { offsetInCU: 0x9F33, offset: 0x9F33, size: 0x8, addend: 0x0, symName: __ZNKSt3__113basic_ostreamIcNS_11char_traitsIcEEE6sentrycvbB7v160006Ev, symObjAddr: 0x2AEC, symBinAddr: 0x100003040, symSize: 0x1C }
  - { offsetInCU: 0x9F58, offset: 0x9F58, size: 0x8, addend: 0x0, symName: __ZNSt3__119ostreambuf_iteratorIcNS_11char_traitsIcEEEC1B7v160006ERNS_13basic_ostreamIcS2_EE, symObjAddr: 0x2D48, symBinAddr: 0x10000329C, symSize: 0x34 }
  - { offsetInCU: 0x9F8E, offset: 0x9F8E, size: 0x8, addend: 0x0, symName: __ZNKSt3__18ios_base5flagsB7v160006Ev, symObjAddr: 0x2D7C, symBinAddr: 0x1000032D0, symSize: 0x18 }
  - { offsetInCU: 0x9FB5, offset: 0x9FB5, size: 0x8, addend: 0x0, symName: __ZNKSt3__19basic_iosIcNS_11char_traitsIcEEE4fillB7v160006Ev, symObjAddr: 0x2D94, symBinAddr: 0x1000032E8, symSize: 0x64 }
  - { offsetInCU: 0x9FDC, offset: 0x9FDC, size: 0x8, addend: 0x0, symName: __ZNKSt3__119ostreambuf_iteratorIcNS_11char_traitsIcEEE6failedB7v160006Ev, symObjAddr: 0x2DF8, symBinAddr: 0x10000334C, symSize: 0x24 }
  - { offsetInCU: 0xA000, offset: 0xA000, size: 0x8, addend: 0x0, symName: __ZNSt3__115basic_streambufIcNS_11char_traitsIcEEE5sputnB7v160006EPKcl, symObjAddr: 0x2E1C, symBinAddr: 0x100003370, symSize: 0x3C }
  - { offsetInCU: 0xA041, offset: 0xA041, size: 0x8, addend: 0x0, symName: __ZNSt3__112basic_stringIcNS_11char_traitsIcEENS_9allocatorIcEEEC1B7v160006Emc, symObjAddr: 0x2E58, symBinAddr: 0x1000033AC, symSize: 0x3C }
  - { offsetInCU: 0xA087, offset: 0xA087, size: 0x8, addend: 0x0, symName: __ZNSt3__112basic_stringIcNS_11char_traitsIcEENS_9allocatorIcEEEC2B7v160006Emc, symObjAddr: 0x2E94, symBinAddr: 0x1000033E8, symSize: 0x54 }
  - { offsetInCU: 0xA0CD, offset: 0xA0CD, size: 0x8, addend: 0x0, symName: __ZNSt3__119ostreambuf_iteratorIcNS_11char_traitsIcEEEC2B7v160006ERNS_13basic_ostreamIcS2_EE, symObjAddr: 0x2EE8, symBinAddr: 0x10000343C, symSize: 0x54 }
  - { offsetInCU: 0xA102, offset: 0xA102, size: 0x8, addend: 0x0, symName: __ZNKSt3__112basic_stringIcNS_11char_traitsIcEENS_9allocatorIcEEE13__get_pointerB7v160006Ev, symObjAddr: 0x2F50, symBinAddr: 0x1000034A4, symSize: 0x54 }
  - { offsetInCU: 0xA126, offset: 0xA126, size: 0x8, addend: 0x0, symName: __ZNKSt3__112basic_stringIcNS_11char_traitsIcEENS_9allocatorIcEEE18__get_long_pointerB7v160006Ev, symObjAddr: 0x2FA4, symBinAddr: 0x1000034F8, symSize: 0x28 }
  - { offsetInCU: 0xA14A, offset: 0xA14A, size: 0x8, addend: 0x0, symName: __ZNKSt3__112basic_stringIcNS_11char_traitsIcEENS_9allocatorIcEEE19__get_short_pointerB7v160006Ev, symObjAddr: 0x2FCC, symBinAddr: 0x100003520, symSize: 0x28 }
  - { offsetInCU: 0xA16F, offset: 0xA16F, size: 0x8, addend: 0x0, symName: __ZNSt3__114pointer_traitsIPKcE10pointer_toB7v160006ERS1_, symObjAddr: 0x2FF4, symBinAddr: 0x100003548, symSize: 0x14 }
  - { offsetInCU: 0xA192, offset: 0xA192, size: 0x8, addend: 0x0, symName: __ZNSt3__111char_traitsIcE7compareEPKcS3_m, symObjAddr: 0x3150, symBinAddr: 0x1000036A4, symSize: 0x6C }
  - { offsetInCU: 0xA1D1, offset: 0xA1D1, size: 0x8, addend: 0x0, symName: __ZNSt3__118basic_stringstreamIcNS_11char_traitsIcEENS_9allocatorIcEEED2Ev, symObjAddr: 0x31F0, symBinAddr: 0x100003744, symSize: 0x6C }
  - { offsetInCU: 0xA209, offset: 0xA209, size: 0x8, addend: 0x0, symName: __ZThn16_NSt3__118basic_stringstreamIcNS_11char_traitsIcEENS_9allocatorIcEEED1Ev, symObjAddr: 0x325C, symBinAddr: 0x1000037B0, symSize: 0x1C }
  - { offsetInCU: 0xA220, offset: 0xA220, size: 0x8, addend: 0x0, symName: __ZTv0_n24_NSt3__118basic_stringstreamIcNS_11char_traitsIcEENS_9allocatorIcEEED1Ev, symObjAddr: 0x3278, symBinAddr: 0x1000037CC, symSize: 0x28 }
  - { offsetInCU: 0xA23C, offset: 0xA23C, size: 0x8, addend: 0x0, symName: __ZNSt3__115basic_stringbufIcNS_11char_traitsIcEENS_9allocatorIcEEED1Ev, symObjAddr: 0x32A0, symBinAddr: 0x1000037F4, symSize: 0x2C }
  - { offsetInCU: 0xA268, offset: 0xA268, size: 0x8, addend: 0x0, symName: __ZNSt3__115basic_stringbufIcNS_11char_traitsIcEENS_9allocatorIcEEED2Ev, symObjAddr: 0x32CC, symBinAddr: 0x100003820, symSize: 0x48 }
...
